target datalayout = "e-m:e-p270:32:32-p271:32:32-p272:64:64-i64:64-i128:128-f80:128-n8:16:32:64-S128"
target triple = "x86_64-pc-linux-gnu"

%class.XStatValue = type { ptr, ptr, i32, i32 }
%class.PaddedEnd = type { %class.PaddedEndImpl }
%class.PaddedEndImpl = type { %"struct.XCPU::XCPUAffinity", [120 x i8] }
%"struct.XCPU::XCPUAffinity" = type { ptr }

@_ZN10XStatValue5_baseE = hidden global i64 0, align 8
@_ZN10XStatValue11_cpu_offsetE = hidden global i32 0, align 4
@_ZN4XCPU9_affinityE = external global ptr, align 8
@_ZN4XCPU4_cpuE = external thread_local global i32, align 4
@_ZN4XCPU5_selfE = external thread_local global ptr, align 8

; Function Attrs: mustprogress nounwind uwtable
define linkonce_odr hidden noundef ptr @_ZNK10XStatValue13get_cpu_localI16XStatCounterDataEEPT_j(ptr noundef nonnull align 8 dereferenceable(24) %0, i32 noundef %1) #1 comdat align 2 {
  %3 = alloca ptr, align 8
  %4 = alloca i32, align 4
  %5 = alloca i64, align 8
  %6 = alloca i64, align 8
  store ptr %0, ptr %3, align 8
  store i32 %1, ptr %4, align 4
  %7 = load ptr, ptr %3, align 8
  %8 = load i64, ptr @_ZN10XStatValue5_baseE, align 8
  %9 = load i32, ptr @_ZN10XStatValue11_cpu_offsetE, align 4
  %10 = load i32, ptr %4, align 4
  %11 = mul i32 %9, %10
  %12 = zext i32 %11 to i64
  %13 = add i64 %8, %12
  store i64 %13, ptr %5, align 8
  %14 = load i64, ptr %5, align 8
  %15 = getelementptr inbounds %class.XStatValue, ptr %7, i32 0, i32 3
  %16 = load i32, ptr %15, align 4
  %17 = zext i32 %16 to i64
  %18 = add i64 %14, %17
  store i64 %18, ptr %6, align 8
  %19 = load i64, ptr %6, align 8
  %20 = inttoptr i64 %19 to ptr
  ret ptr %20
}

; Function Attrs: mustprogress nounwind uwtable
define linkonce_odr hidden noundef i32 @_ZN4XCPU2idEv() #1 comdat align 2 {
  %1 = alloca i32, align 4
  %2 = load ptr, ptr @_ZN4XCPU9_affinityE, align 8
  %3 = call align 4 ptr @llvm.threadlocal.address.p0(ptr align 4 @_ZN4XCPU4_cpuE)
  %4 = load i32, ptr %3, align 4
  %5 = zext i32 %4 to i64
  %6 = getelementptr inbounds %class.PaddedEnd, ptr %2, i64 %5
  %7 = getelementptr inbounds %"struct.XCPU::XCPUAffinity", ptr %6, i32 0, i32 0
  %8 = load ptr, ptr %7, align 8
  %9 = call align 8 ptr @llvm.threadlocal.address.p0(ptr align 8 @_ZN4XCPU5_selfE)
  %10 = load ptr, ptr %9, align 8
  %11 = icmp eq ptr %8, %10
  br i1 %11, label %12, label %15

12:                                               ; preds = %0
  %13 = call align 4 ptr @llvm.threadlocal.address.p0(ptr align 4 @_ZN4XCPU4_cpuE)
  %14 = load i32, ptr %13, align 4
  store i32 %14, ptr %1, align 4
  br label %17

15:                                               ; preds = %0
  %16 = call noundef i32 @_ZN4XCPU7id_slowEv()
  store i32 %16, ptr %1, align 4
  br label %17

17:                                               ; preds = %15, %12
  %18 = load i32, ptr %1, align 4
  ret i32 %18
}

; Function Attrs: mustprogress nounwind uwtable
define hidden noundef ptr @_ZNK12XStatCounter3getEv(ptr noundef nonnull align 8 dereferenceable(72) %0) #1 align 2 {
  %2 = alloca ptr, align 8
  store ptr %0, ptr %2, align 8
  %3 = load ptr, ptr %2, align 8
  %4 = call noundef i32 @_ZN4XCPU2idEv()
  %5 = call noundef ptr @_ZNK10XStatValue13get_cpu_localI16XStatCounterDataEEPT_j(ptr noundef nonnull align 8 dereferenceable(24) %3, i32 noundef %4)
  ret ptr %5
}